; Function Attrs: mustprogress nounwind uwtable
define hidden noundef zeroext i1 @_ZNK5clang7targets13X86TargetInfo18validateOutputSizeERKN4llvm9StringMapIbNS2_15MallocAllocatorEEENS2_9StringRefEj(ptr noundef nonnull align 8 dereferenceable(616) %0, ptr noundef nonnull align 8 dereferenceable(24) %1, ptr %2, i64 %3, i32 noundef %4) unnamed_addr #2 align 2 {
  %6 = alloca %"class.llvm::StringRef", align 8
  store ptr %2, ptr %6, align 8
  %7 = getelementptr inbounds nuw i8, ptr %6, i64 8
  store i64 %3, ptr %7, align 8
  %8 = call noundef i64 @_ZNK4llvm9StringRef17find_first_not_ofES0_m(ptr noundef nonnull align 8 dereferenceable(16) %6, ptr nonnull @.str.493, i64 3, i64 noundef 0) #21
  %9 = load i64, ptr %7, align 8
  %.sroa.speculated.i = call i64 @llvm.umin.i64(i64 %8, i64 %9)
  %10 = load ptr, ptr %6, align 8
  %11 = getelementptr inbounds i8, ptr %10, i64 %.sroa.speculated.i
  %12 = sub i64 %9, %.sroa.speculated.i
  store ptr %11, ptr %6, align 8
  store i64 %12, ptr %7, align 8
  %13 = load ptr, ptr %0, align 8
  %14 = getelementptr inbounds i8, ptr %13, i64 968
  %15 = load ptr, ptr %14, align 8
  %16 = call noundef zeroext i1 %15(ptr noundef nonnull align 8 dereferenceable(616) %0, ptr noundef nonnull align 8 dereferenceable(24) %1, ptr %11, i64 %12, i32 noundef %4) #21
  ret i1 %16
}